target datalayout = "e-m:e-p270:32:32-p271:32:32-p272:64:64-i64:64-i128:128-f80:128-n8:16:32:64-S128"
target triple = "x86_64-pc-linux-gnu"

%struct.prov_aes_ocb_ctx_st = type { %struct.prov_cipher_ctx_st, %union.anon.0, %union.anon.1, %struct.ocb128_context, i32, i8, i64, i64, i64, [16 x i8], [16 x i8], [16 x i8] }
%struct.prov_cipher_ctx_st = type { [16 x i8], [16 x i8], [16 x i8], ptr, %union.anon, i32, i64, i64, i64, i64, i32, i8, i32, ptr, i32, i64, i32, i64, i32, ptr, ptr, ptr }
%union.anon = type { ptr }
%union.anon.0 = type { double, [240 x i8] }
%union.anon.1 = type { double, [240 x i8] }
%struct.ocb128_context = type { ptr, ptr, ptr, ptr, ptr, i64, i64, %union.OCB_BLOCK, %union.OCB_BLOCK, ptr, %struct.anon }
%union.OCB_BLOCK = type { [2 x i64] }
%struct.anon = type { i64, i64, %union.OCB_BLOCK, %union.OCB_BLOCK, %union.OCB_BLOCK, %union.OCB_BLOCK }

; Function Attrs: inlinehint nounwind uwtable
define internal i32 @aes_generic_ocb_setiv(ptr noundef %0, ptr noundef %1, i64 noundef %2, i64 noundef %3) #3 {
  %5 = alloca ptr, align 8
  %6 = alloca ptr, align 8
  %7 = alloca i64, align 8
  %8 = alloca i64, align 8
  store ptr %0, ptr %5, align 8, !tbaa !15
  store ptr %1, ptr %6, align 8, !tbaa !7
  store i64 %2, ptr %7, align 8, !tbaa !9
  store i64 %3, ptr %8, align 8, !tbaa !9
  %9 = load ptr, ptr %5, align 8, !tbaa !15
  %10 = getelementptr inbounds nuw %struct.prov_aes_ocb_ctx_st, ptr %9, i32 0, i32 3
  %11 = load ptr, ptr %6, align 8, !tbaa !7
  %12 = load i64, ptr %7, align 8, !tbaa !9
  %13 = load i64, ptr %8, align 8, !tbaa !9
  %14 = call i32 @CRYPTO_ocb128_setiv(ptr noundef %10, ptr noundef %11, i64 noundef %12, i64 noundef %13)
  %15 = icmp eq i32 %14, 1
  %16 = zext i1 %15 to i32
  ret i32 %16
}

; Function Attrs: inlinehint nounwind uwtable
define internal i32 @aes_generic_ocb_final(ptr noundef %0) #3 {
  %2 = alloca ptr, align 8
  store ptr %0, ptr %2, align 8, !tbaa !15
  %3 = load ptr, ptr %2, align 8, !tbaa !15
  %4 = getelementptr inbounds nuw %struct.prov_aes_ocb_ctx_st, ptr %3, i32 0, i32 3
  %5 = load ptr, ptr %2, align 8, !tbaa !15
  %6 = getelementptr inbounds nuw %struct.prov_aes_ocb_ctx_st, ptr %5, i32 0, i32 9
  %7 = getelementptr inbounds [16 x i8], ptr %6, i64 0, i64 0
  %8 = load ptr, ptr %2, align 8, !tbaa !15
  %9 = getelementptr inbounds nuw %struct.prov_aes_ocb_ctx_st, ptr %8, i32 0, i32 6
  %10 = load i64, ptr %9, align 8, !tbaa !27
  %11 = call i32 @CRYPTO_ocb128_finish(ptr noundef %4, ptr noundef %7, i64 noundef %10)
  %12 = icmp eq i32 %11, 0
  %13 = zext i1 %12 to i32
  ret i32 %13
}

; Function Attrs: inlinehint nounwind uwtable
define internal i32 @aes_generic_ocb_gettag(ptr noundef %0, ptr noundef %1, i64 noundef %2) #3 {
  %4 = alloca ptr, align 8
  %5 = alloca ptr, align 8
  %6 = alloca i64, align 8
  store ptr %0, ptr %4, align 8, !tbaa !15
  store ptr %1, ptr %5, align 8, !tbaa !7
  store i64 %2, ptr %6, align 8, !tbaa !9
  %7 = load ptr, ptr %4, align 8, !tbaa !15
  %8 = getelementptr inbounds nuw %struct.prov_aes_ocb_ctx_st, ptr %7, i32 0, i32 3
  %9 = load ptr, ptr %5, align 8, !tbaa !7
  %10 = load i64, ptr %6, align 8, !tbaa !9
  %11 = call i32 @CRYPTO_ocb128_tag(ptr noundef %8, ptr noundef %9, i64 noundef %10)
  %12 = icmp sgt i32 %11, 0
  %13 = zext i1 %12 to i32
  ret i32 %13
}

; Function Attrs: inlinehint nounwind uwtable
define internal i32 @aes_generic_ocb_setaad(ptr noundef %0, ptr noundef %1, i64 noundef %2) #3 {
  %4 = alloca ptr, align 8
  %5 = alloca ptr, align 8
  %6 = alloca i64, align 8
  store ptr %0, ptr %4, align 8, !tbaa !15
  store ptr %1, ptr %5, align 8, !tbaa !7
  store i64 %2, ptr %6, align 8, !tbaa !9
  %7 = load ptr, ptr %4, align 8, !tbaa !15
  %8 = getelementptr inbounds nuw %struct.prov_aes_ocb_ctx_st, ptr %7, i32 0, i32 3
  %9 = load ptr, ptr %5, align 8, !tbaa !7
  %10 = load i64, ptr %6, align 8, !tbaa !9
  %11 = call i32 @CRYPTO_ocb128_aad(ptr noundef %8, ptr noundef %9, i64 noundef %10)
  %12 = icmp eq i32 %11, 1
  %13 = zext i1 %12 to i32
  ret i32 %13
}

; Function Attrs: inlinehint nounwind uwtable
define internal i32 @aes_generic_ocb_cipher(ptr noundef %0, ptr noundef %1, ptr noundef %2, i64 noundef %3) #3 {
  %5 = alloca i32, align 4
  %6 = alloca ptr, align 8
  %7 = alloca ptr, align 8
  %8 = alloca ptr, align 8
  %9 = alloca i64, align 8
  store ptr %0, ptr %6, align 8, !tbaa !15
  store ptr %1, ptr %7, align 8, !tbaa !7
  store ptr %2, ptr %8, align 8, !tbaa !7
  store i64 %3, ptr %9, align 8, !tbaa !9
  %10 = load ptr, ptr %6, align 8, !tbaa !15
  %11 = getelementptr inbounds nuw %struct.prov_aes_ocb_ctx_st, ptr %10, i32 0, i32 0
  %12 = getelementptr inbounds nuw %struct.prov_cipher_ctx_st, ptr %11, i32 0, i32 11
  %13 = load i8, ptr %12, align 4
  %14 = lshr i8 %13, 1
  %15 = and i8 %14, 1
  %16 = zext i8 %15 to i32
  %17 = icmp ne i32 %16, 0
  br i1 %17, label %18, label %28

18:                                               ; preds = %4
  %19 = load ptr, ptr %6, align 8, !tbaa !15
  %20 = getelementptr inbounds nuw %struct.prov_aes_ocb_ctx_st, ptr %19, i32 0, i32 3
  %21 = load ptr, ptr %7, align 8, !tbaa !7
  %22 = load ptr, ptr %8, align 8, !tbaa !7
  %23 = load i64, ptr %9, align 8, !tbaa !9
  %24 = call i32 @CRYPTO_ocb128_encrypt(ptr noundef %20, ptr noundef %21, ptr noundef %22, i64 noundef %23)
  %25 = icmp ne i32 %24, 0
  br i1 %25, label %27, label %26

26:                                               ; preds = %18
  store i32 0, ptr %5, align 4
  br label %39

27:                                               ; preds = %18
  br label %38

28:                                               ; preds = %4
  %29 = load ptr, ptr %6, align 8, !tbaa !15
  %30 = getelementptr inbounds nuw %struct.prov_aes_ocb_ctx_st, ptr %29, i32 0, i32 3
  %31 = load ptr, ptr %7, align 8, !tbaa !7
  %32 = load ptr, ptr %8, align 8, !tbaa !7
  %33 = load i64, ptr %9, align 8, !tbaa !9
  %34 = call i32 @CRYPTO_ocb128_decrypt(ptr noundef %30, ptr noundef %31, ptr noundef %32, i64 noundef %33)
  %35 = icmp ne i32 %34, 0
  br i1 %35, label %37, label %36

36:                                               ; preds = %28
  store i32 0, ptr %5, align 4
  br label %39

37:                                               ; preds = %28
  br label %38

38:                                               ; preds = %37, %27
  store i32 1, ptr %5, align 4
  br label %39

39:                                               ; preds = %38, %36, %26
  %40 = load i32, ptr %5, align 4
  ret i32 %40
}

; Function Attrs: nounwind uwtable
define internal i32 @update_iv(ptr noundef %0) #0 {
  %2 = alloca i32, align 4
  %3 = alloca ptr, align 8
  store ptr %0, ptr %3, align 8, !tbaa !15
  %4 = load ptr, ptr %3, align 8, !tbaa !15
  %5 = getelementptr inbounds nuw %struct.prov_aes_ocb_ctx_st, ptr %4, i32 0, i32 4
  %6 = load i32, ptr %5, align 8, !tbaa !28
  %7 = icmp eq i32 %6, 3
  br i1 %7, label %13, label %8

8:                                                ; preds = %1
  %9 = load ptr, ptr %3, align 8, !tbaa !15
  %10 = getelementptr inbounds nuw %struct.prov_aes_ocb_ctx_st, ptr %9, i32 0, i32 4
  %11 = load i32, ptr %10, align 8, !tbaa !28
  %12 = icmp eq i32 %11, 0
  br i1 %12, label %13, label %14

13:                                               ; preds = %8, %1
  store i32 0, ptr %2, align 4
  br label %39

14:                                               ; preds = %8
  %15 = load ptr, ptr %3, align 8, !tbaa !15
  %16 = getelementptr inbounds nuw %struct.prov_aes_ocb_ctx_st, ptr %15, i32 0, i32 4
  %17 = load i32, ptr %16, align 8, !tbaa !28
  %18 = icmp eq i32 %17, 1
  br i1 %18, label %19, label %38

19:                                               ; preds = %14
  %20 = load ptr, ptr %3, align 8, !tbaa !15
  %21 = load ptr, ptr %3, align 8, !tbaa !15
  %22 = getelementptr inbounds nuw %struct.prov_aes_ocb_ctx_st, ptr %21, i32 0, i32 0
  %23 = getelementptr inbounds nuw %struct.prov_cipher_ctx_st, ptr %22, i32 0, i32 2
  %24 = getelementptr inbounds [16 x i8], ptr %23, i64 0, i64 0
  %25 = load ptr, ptr %3, align 8, !tbaa !15
  %26 = getelementptr inbounds nuw %struct.prov_aes_ocb_ctx_st, ptr %25, i32 0, i32 0
  %27 = getelementptr inbounds nuw %struct.prov_cipher_ctx_st, ptr %26, i32 0, i32 7
  %28 = load i64, ptr %27, align 8, !tbaa !35
  %29 = load ptr, ptr %3, align 8, !tbaa !15
  %30 = getelementptr inbounds nuw %struct.prov_aes_ocb_ctx_st, ptr %29, i32 0, i32 6
  %31 = load i64, ptr %30, align 8, !tbaa !27
  %32 = call i32 @aes_generic_ocb_setiv(ptr noundef %20, ptr noundef %24, i64 noundef %28, i64 noundef %31)
  %33 = icmp ne i32 %32, 0
  br i1 %33, label %35, label %34

34:                                               ; preds = %19
  store i32 0, ptr %2, align 4
  br label %39

35:                                               ; preds = %19
  %36 = load ptr, ptr %3, align 8, !tbaa !15
  %37 = getelementptr inbounds nuw %struct.prov_aes_ocb_ctx_st, ptr %36, i32 0, i32 4
  store i32 2, ptr %37, align 8, !tbaa !28
  br label %38

38:                                               ; preds = %35, %14
  store i32 1, ptr %2, align 4
  br label %39

39:                                               ; preds = %38, %34, %13
  %40 = load i32, ptr %2, align 4
  ret i32 %40
}

; Function Attrs: nounwind uwtable
define internal i32 @aes_ocb_block_final(ptr noundef %0, ptr noundef %1, ptr noundef %2, i64 noundef %3) #0 {
  %5 = alloca i32, align 4
  %6 = alloca ptr, align 8
  %7 = alloca ptr, align 8
  %8 = alloca ptr, align 8
  %9 = alloca i64, align 8
  %10 = alloca ptr, align 8
  %11 = alloca i32, align 4
  store ptr %0, ptr %6, align 8, !tbaa !3
  store ptr %1, ptr %7, align 8, !tbaa !7
  store ptr %2, ptr %8, align 8, !tbaa !13
  store i64 %3, ptr %9, align 8, !tbaa !9
  call void @llvm.lifetime.start.p0(i64 8, ptr %10) #5
  %12 = load ptr, ptr %6, align 8, !tbaa !3
  store ptr %12, ptr %10, align 8, !tbaa !15
  %13 = call i32 @ossl_prov_is_running()
  %14 = icmp ne i32 %13, 0
  br i1 %14, label %16, label %15

15:                                               ; preds = %4
  store i32 0, ptr %5, align 4
  store i32 1, ptr %11, align 4
  br label %108

16:                                               ; preds = %4
  %17 = load ptr, ptr %10, align 8, !tbaa !15
  %18 = getelementptr inbounds nuw %struct.prov_aes_ocb_ctx_st, ptr %17, i32 0, i32 5
  %19 = load i8, ptr %18, align 4
  %20 = and i8 %19, 1
  %21 = zext i8 %20 to i32
  %22 = icmp ne i32 %21, 0
  br i1 %22, label %23, label %27

23:                                               ; preds = %16
  %24 = load ptr, ptr %10, align 8, !tbaa !15
  %25 = call i32 @update_iv(ptr noundef %24)
  %26 = icmp ne i32 %25, 0
  br i1 %26, label %28, label %27

27:                                               ; preds = %23, %16
  store i32 0, ptr %5, align 4
  store i32 1, ptr %11, align 4
  br label %108

28:                                               ; preds = %23
  %29 = load ptr, ptr %8, align 8, !tbaa !13
  store i64 0, ptr %29, align 8, !tbaa !9
  %30 = load ptr, ptr %10, align 8, !tbaa !15
  %31 = getelementptr inbounds nuw %struct.prov_aes_ocb_ctx_st, ptr %30, i32 0, i32 7
  %32 = load i64, ptr %31, align 8, !tbaa !17
  %33 = icmp ugt i64 %32, 0
  br i1 %33, label %34, label %53

34:                                               ; preds = %28
  %35 = load ptr, ptr %10, align 8, !tbaa !15
  %36 = load ptr, ptr %10, align 8, !tbaa !15
  %37 = getelementptr inbounds nuw %struct.prov_aes_ocb_ctx_st, ptr %36, i32 0, i32 10
  %38 = getelementptr inbounds [16 x i8], ptr %37, i64 0, i64 0
  %39 = load ptr, ptr %7, align 8, !tbaa !7
  %40 = load ptr, ptr %10, align 8, !tbaa !15
  %41 = getelementptr inbounds nuw %struct.prov_aes_ocb_ctx_st, ptr %40, i32 0, i32 7
  %42 = load i64, ptr %41, align 8, !tbaa !17
  %43 = call i32 @aes_generic_ocb_cipher(ptr noundef %35, ptr noundef %38, ptr noundef %39, i64 noundef %42)
  %44 = icmp ne i32 %43, 0
  br i1 %44, label %46, label %45

45:                                               ; preds = %34
  store i32 0, ptr %5, align 4
  store i32 1, ptr %11, align 4
  br label %108

46:                                               ; preds = %34
  %47 = load ptr, ptr %10, align 8, !tbaa !15
  %48 = getelementptr inbounds nuw %struct.prov_aes_ocb_ctx_st, ptr %47, i32 0, i32 7
  %49 = load i64, ptr %48, align 8, !tbaa !17
  %50 = load ptr, ptr %8, align 8, !tbaa !13
  store i64 %49, ptr %50, align 8, !tbaa !9
  %51 = load ptr, ptr %10, align 8, !tbaa !15
  %52 = getelementptr inbounds nuw %struct.prov_aes_ocb_ctx_st, ptr %51, i32 0, i32 7
  store i64 0, ptr %52, align 8, !tbaa !17
  br label %53

53:                                               ; preds = %46, %28
  %54 = load ptr, ptr %10, align 8, !tbaa !15
  %55 = getelementptr inbounds nuw %struct.prov_aes_ocb_ctx_st, ptr %54, i32 0, i32 8
  %56 = load i64, ptr %55, align 8, !tbaa !26
  %57 = icmp ugt i64 %56, 0
  br i1 %57, label %58, label %72

58:                                               ; preds = %53
  %59 = load ptr, ptr %10, align 8, !tbaa !15
  %60 = load ptr, ptr %10, align 8, !tbaa !15
  %61 = getelementptr inbounds nuw %struct.prov_aes_ocb_ctx_st, ptr %60, i32 0, i32 11
  %62 = getelementptr inbounds [16 x i8], ptr %61, i64 0, i64 0
  %63 = load ptr, ptr %10, align 8, !tbaa !15
  %64 = getelementptr inbounds nuw %struct.prov_aes_ocb_ctx_st, ptr %63, i32 0, i32 8
  %65 = load i64, ptr %64, align 8, !tbaa !26
  %66 = call i32 @aes_generic_ocb_setaad(ptr noundef %59, ptr noundef %62, i64 noundef %65)
  %67 = icmp ne i32 %66, 0
  br i1 %67, label %69, label %68

68:                                               ; preds = %58
  store i32 0, ptr %5, align 4
  store i32 1, ptr %11, align 4
  br label %108

69:                                               ; preds = %58
  %70 = load ptr, ptr %10, align 8, !tbaa !15
  %71 = getelementptr inbounds nuw %struct.prov_aes_ocb_ctx_st, ptr %70, i32 0, i32 8
  store i64 0, ptr %71, align 8, !tbaa !26
  br label %72

72:                                               ; preds = %69, %53
  %73 = load ptr, ptr %10, align 8, !tbaa !15
  %74 = getelementptr inbounds nuw %struct.prov_aes_ocb_ctx_st, ptr %73, i32 0, i32 0
  %75 = getelementptr inbounds nuw %struct.prov_cipher_ctx_st, ptr %74, i32 0, i32 11
  %76 = load i8, ptr %75, align 4
  %77 = lshr i8 %76, 1
  %78 = and i8 %77, 1
  %79 = zext i8 %78 to i32
  %80 = icmp ne i32 %79, 0
  br i1 %80, label %81, label %93

81:                                               ; preds = %72
  %82 = load ptr, ptr %10, align 8, !tbaa !15
  %83 = load ptr, ptr %10, align 8, !tbaa !15
  %84 = getelementptr inbounds nuw %struct.prov_aes_ocb_ctx_st, ptr %83, i32 0, i32 9
  %85 = getelementptr inbounds [16 x i8], ptr %84, i64 0, i64 0
  %86 = load ptr, ptr %10, align 8, !tbaa !15
  %87 = getelementptr inbounds nuw %struct.prov_aes_ocb_ctx_st, ptr %86, i32 0, i32 6
  %88 = load i64, ptr %87, align 8, !tbaa !27
  %89 = call i32 @aes_generic_ocb_gettag(ptr noundef %82, ptr noundef %85, i64 noundef %88)
  %90 = icmp ne i32 %89, 0
  br i1 %90, label %92, label %91

91:                                               ; preds = %81
  store i32 0, ptr %5, align 4
  store i32 1, ptr %11, align 4
  br label %108

92:                                               ; preds = %81
  br label %105

93:                                               ; preds = %72
  %94 = load ptr, ptr %10, align 8, !tbaa !15
  %95 = getelementptr inbounds nuw %struct.prov_aes_ocb_ctx_st, ptr %94, i32 0, i32 6
  %96 = load i64, ptr %95, align 8, !tbaa !27
  %97 = icmp eq i64 %96, 0
  br i1 %97, label %98, label %99

98:                                               ; preds = %93
  store i32 0, ptr %5, align 4
  store i32 1, ptr %11, align 4
  br label %108

99:                                               ; preds = %93
  %100 = load ptr, ptr %10, align 8, !tbaa !15
  %101 = call i32 @aes_generic_ocb_final(ptr noundef %100)
  %102 = icmp ne i32 %101, 0
  br i1 %102, label %104, label %103

103:                                              ; preds = %99
  store i32 0, ptr %5, align 4
  store i32 1, ptr %11, align 4
  br label %108

104:                                              ; preds = %99
  br label %105

105:                                              ; preds = %104, %92
  %106 = load ptr, ptr %10, align 8, !tbaa !15
  %107 = getelementptr inbounds nuw %struct.prov_aes_ocb_ctx_st, ptr %106, i32 0, i32 4
  store i32 3, ptr %107, align 8, !tbaa !28
  store i32 1, ptr %5, align 4
  store i32 1, ptr %11, align 4
  br label %108

108:                                              ; preds = %105, %103, %98, %91, %68, %45, %27, %15
  call void @llvm.lifetime.end.p0(i64 8, ptr %10) #5
  %109 = load i32, ptr %5, align 4
  ret i32 %109
}