; Function Attrs: nounwind uwtable
define internal range(i32 0, 2) i32 @aes_ocb_block_final(ptr noundef %0, ptr noundef %1, ptr noundef writeonly captures(none) %2, i64 %3) #0 {
  %5 = tail call i32 @ossl_prov_is_running() #7
  %.not = icmp eq i32 %5, 0
  br i1 %.not, label %update_iv.exit.thread, label %6

6:                                                ; preds = %4
  %7 = getelementptr inbounds nuw i8, ptr %0, i64 868
  %8 = load i8, ptr %7, align 4
  %9 = and i8 %8, 1
  %.not26 = icmp eq i8 %9, 0
  br i1 %.not26, label %update_iv.exit.thread, label %10

10:                                               ; preds = %6
  %11 = getelementptr inbounds nuw i8, ptr %0, i64 864
  %12 = load i32, ptr %11, align 8, !tbaa !17
  switch i32 %12, label %update_iv.exit [
    i32 3, label %update_iv.exit.thread
    i32 0, label %update_iv.exit.thread
    i32 1, label %13
  ]

13:                                               ; preds = %10
  %14 = getelementptr inbounds nuw i8, ptr %0, i64 32
  %15 = getelementptr inbounds nuw i8, ptr %0, i64 80
  %16 = load i64, ptr %15, align 8, !tbaa !18
  %17 = getelementptr inbounds nuw i8, ptr %0, i64 872
  %18 = load i64, ptr %17, align 8, !tbaa !3
  %19 = getelementptr inbounds nuw i8, ptr %0, i64 688
  %20 = tail call i32 @CRYPTO_ocb128_setiv(ptr noundef nonnull %19, ptr noundef nonnull %14, i64 noundef %16, i64 noundef %18) #7
  %.not.i = icmp eq i32 %20, 1
  br i1 %.not.i, label %21, label %update_iv.exit.thread

21:                                               ; preds = %13
  store i32 2, ptr %11, align 8, !tbaa !17
  br label %update_iv.exit

update_iv.exit:                                   ; preds = %21, %10
  store i64 0, ptr %2, align 8, !tbaa !19
  %22 = getelementptr inbounds nuw i8, ptr %0, i64 880
  %23 = load i64, ptr %22, align 8, !tbaa !20
  %.not28 = icmp eq i64 %23, 0
  br i1 %.not28, label %35, label %24

24:                                               ; preds = %update_iv.exit
  %25 = getelementptr inbounds nuw i8, ptr %0, i64 912
  %26 = getelementptr inbounds nuw i8, ptr %0, i64 108
  %27 = load i8, ptr %26, align 4
  %28 = and i8 %27, 2
  %.not.i35 = icmp eq i8 %28, 0
  %29 = getelementptr inbounds nuw i8, ptr %0, i64 688
  br i1 %.not.i35, label %32, label %30

30:                                               ; preds = %24
  %31 = tail call i32 @CRYPTO_ocb128_encrypt(ptr noundef nonnull %29, ptr noundef nonnull %25, ptr noundef %1, i64 noundef %23) #7
  %.not10.i = icmp eq i32 %31, 0
  br i1 %.not10.i, label %update_iv.exit.thread, label %aes_generic_ocb_cipher.exit

32:                                               ; preds = %24
  %33 = tail call i32 @CRYPTO_ocb128_decrypt(ptr noundef nonnull %29, ptr noundef nonnull %25, ptr noundef %1, i64 noundef %23) #7
  %.not9.i = icmp eq i32 %33, 0
  br i1 %.not9.i, label %update_iv.exit.thread, label %aes_generic_ocb_cipher.exit

aes_generic_ocb_cipher.exit:                      ; preds = %32, %30
  %34 = load i64, ptr %22, align 8, !tbaa !20
  store i64 %34, ptr %2, align 8, !tbaa !19
  store i64 0, ptr %22, align 8, !tbaa !20
  br label %35

35:                                               ; preds = %aes_generic_ocb_cipher.exit, %update_iv.exit
  %36 = getelementptr inbounds nuw i8, ptr %0, i64 888
  %37 = load i64, ptr %36, align 8, !tbaa !21
  %.not30 = icmp eq i64 %37, 0
  br i1 %.not30, label %43, label %38

38:                                               ; preds = %35
  %39 = getelementptr inbounds nuw i8, ptr %0, i64 928
  %40 = getelementptr inbounds nuw i8, ptr %0, i64 688
  %41 = tail call i32 @CRYPTO_ocb128_aad(ptr noundef nonnull %40, ptr noundef nonnull %39, i64 noundef %37) #7
  %.not41 = icmp eq i32 %41, 1
  br i1 %.not41, label %42, label %update_iv.exit.thread

42:                                               ; preds = %38
  store i64 0, ptr %36, align 8, !tbaa !21
  br label %43

43:                                               ; preds = %42, %35
  %44 = getelementptr inbounds nuw i8, ptr %0, i64 108
  %45 = load i8, ptr %44, align 4
  %46 = and i8 %45, 2
  %.not32 = icmp eq i8 %46, 0
  br i1 %.not32, label %54, label %47

47:                                               ; preds = %43
  %48 = getelementptr inbounds nuw i8, ptr %0, i64 896
  %49 = getelementptr inbounds nuw i8, ptr %0, i64 872
  %50 = load i64, ptr %49, align 8, !tbaa !3
  %51 = getelementptr inbounds nuw i8, ptr %0, i64 688
  %52 = tail call i32 @CRYPTO_ocb128_tag(ptr noundef nonnull %51, ptr noundef nonnull %48, i64 noundef %50) #7
  %53 = icmp slt i32 %52, 1
  br i1 %53, label %update_iv.exit.thread, label %62

54:                                               ; preds = %43
  %55 = getelementptr inbounds nuw i8, ptr %0, i64 872
  %56 = load i64, ptr %55, align 8, !tbaa !3
  %57 = icmp eq i64 %56, 0
  br i1 %57, label %update_iv.exit.thread, label %58

58:                                               ; preds = %54
  %59 = getelementptr inbounds nuw i8, ptr %0, i64 688
  %60 = getelementptr inbounds nuw i8, ptr %0, i64 896
  %61 = tail call i32 @CRYPTO_ocb128_finish(ptr noundef nonnull %59, ptr noundef nonnull %60, i64 noundef %56) #7
  %.not42 = icmp eq i32 %61, 0
  br i1 %.not42, label %62, label %update_iv.exit.thread

62:                                               ; preds = %58, %47
  store i32 3, ptr %11, align 8, !tbaa !17
  br label %update_iv.exit.thread

update_iv.exit.thread:                            ; preds = %32, %30, %13, %10, %10, %58, %54, %47, %38, %6, %4, %62
  %.0 = phi i32 [ 1, %62 ], [ 0, %4 ], [ 0, %6 ], [ 0, %38 ], [ 0, %47 ], [ 0, %54 ], [ 0, %58 ], [ 0, %10 ], [ 0, %10 ], [ 0, %13 ], [ 0, %30 ], [ 0, %32 ]
  ret i32 %.0
}